target datalayout = "e-m:e-p270:32:32-p271:32:32-p272:64:64-i64:64-i128:128-f80:128-n8:16:32:64-S128"
target triple = "x86_64-pc-linux-gnu"

%struct._object = type { %union.anon, ptr }
%union.anon = type { i64 }
%struct.PyVarObject = type { %struct._object, i64 }
%struct.listreviterobject = type { %struct._object, i64, ptr }

; Function Attrs: inlinehint nounwind uwtable
define internal i64 @Py_SIZE(ptr noundef %0) #2 {
  %2 = alloca ptr, align 8
  store ptr %0, ptr %2, align 8, !tbaa !36
  %3 = load ptr, ptr %2, align 8, !tbaa !36
  %4 = getelementptr inbounds nuw %struct.PyVarObject, ptr %3, i32 0, i32 1
  %5 = load i64, ptr %4, align 8, !tbaa !38
  ret i64 %5
}

; Function Attrs: inlinehint nounwind uwtable
define internal i64 @PyList_GET_SIZE(ptr noundef %0) #2 {
  %2 = alloca ptr, align 8
  %3 = alloca ptr, align 8
  store ptr %0, ptr %2, align 8, !tbaa !36
  call void @llvm.lifetime.start.p0(i64 8, ptr %3) #8
  %4 = load ptr, ptr %2, align 8, !tbaa !36
  store ptr %4, ptr %3, align 8, !tbaa !27
  %5 = load ptr, ptr %3, align 8, !tbaa !27
  %6 = call i64 @Py_SIZE(ptr noundef %5)
  call void @llvm.lifetime.end.p0(i64 8, ptr %3) #8
  ret i64 %6
}

; Function Attrs: nounwind uwtable
define internal ptr @listreviter_len(ptr noundef %0, ptr noundef %1) #0 {
  %3 = alloca ptr, align 8
  %4 = alloca ptr, align 8
  %5 = alloca ptr, align 8
  %6 = alloca i64, align 8
  %7 = alloca i64, align 8
  store ptr %0, ptr %3, align 8, !tbaa !36
  store ptr %1, ptr %4, align 8, !tbaa !36
  call void @llvm.lifetime.start.p0(i64 8, ptr %5) #8
  %8 = load ptr, ptr %3, align 8, !tbaa !36
  store ptr %8, ptr %5, align 8, !tbaa !27
  call void @llvm.lifetime.start.p0(i64 8, ptr %6) #8
  %9 = load ptr, ptr %5, align 8, !tbaa !27
  %10 = getelementptr inbounds nuw %struct.listreviterobject, ptr %9, i32 0, i32 1
  %11 = load i64, ptr %10, align 8, !tbaa !155
  store i64 %11, ptr %6, align 8, !tbaa !26
  call void @llvm.lifetime.start.p0(i64 8, ptr %7) #8
  %12 = load i64, ptr %6, align 8, !tbaa !26
  %13 = add i64 %12, 1
  store i64 %13, ptr %7, align 8, !tbaa !26
  %14 = load ptr, ptr %5, align 8, !tbaa !27
  %15 = getelementptr inbounds nuw %struct.listreviterobject, ptr %14, i32 0, i32 2
  %16 = load ptr, ptr %15, align 8, !tbaa !157
  %17 = icmp eq ptr %16, null
  br i1 %17, label %25, label %18

18:                                               ; preds = %2
  %19 = load ptr, ptr %5, align 8, !tbaa !27
  %20 = getelementptr inbounds nuw %struct.listreviterobject, ptr %19, i32 0, i32 2
  %21 = load ptr, ptr %20, align 8, !tbaa !157
  %22 = call i64 @PyList_GET_SIZE(ptr noundef %21)
  %23 = load i64, ptr %7, align 8, !tbaa !26
  %24 = icmp slt i64 %22, %23
  br i1 %24, label %25, label %26

25:                                               ; preds = %18, %2
  store i64 0, ptr %7, align 8, !tbaa !26
  br label %26

26:                                               ; preds = %25, %18
  %27 = load i64, ptr %7, align 8, !tbaa !26
  %28 = call ptr @PyLong_FromSsize_t(i64 noundef %27)
  call void @llvm.lifetime.end.p0(i64 8, ptr %7) #8
  call void @llvm.lifetime.end.p0(i64 8, ptr %6) #8
  call void @llvm.lifetime.end.p0(i64 8, ptr %5) #8
  ret ptr %28
}