; Function Attrs: nounwind uwtable
define internal ptr @listreviter_len(ptr noundef readonly captures(none) %0, ptr readnone captures(none) %1) #0 {
  %3 = getelementptr inbounds nuw i8, ptr %0, i64 24
  %4 = load ptr, ptr %3, align 8, !tbaa !171
  %5 = icmp eq ptr %4, null
  br i1 %5, label %12, label %6

6:                                                ; preds = %2
  %7 = getelementptr inbounds nuw i8, ptr %0, i64 16
  %8 = load i64, ptr %7, align 8, !tbaa !169
  %9 = add i64 %8, 1
  %10 = getelementptr i8, ptr %4, i64 16
  %.val = load i64, ptr %10, align 8, !tbaa !33
  %11 = icmp slt i64 %.val, %9
  br i1 %11, label %12, label %13

12:                                               ; preds = %6, %2
  br label %13

13:                                               ; preds = %12, %6
  %.0 = phi i64 [ 0, %12 ], [ %9, %6 ]
  %14 = tail call ptr @PyLong_FromSsize_t(i64 noundef %.0) #12
  ret ptr %14
}